target datalayout = "e-m:e-p270:32:32-p271:32:32-p272:64:64-i64:64-i128:128-f80:128-n8:16:32:64-S128"
target triple = "x86_64-pc-linux-gnu"

%"class.icu_77::number::impl::DecimalQuantity" = type <{ %"class.icu_77::IFixedDecimal", i8, [3 x i8], i32, i32, i8, i8, [2 x i8], double, i32, i32, i32, i32, %union.anon, i8, i8, [6 x i8] }>
%"class.icu_77::IFixedDecimal" = type { ptr }
%union.anon = type { %struct.anon }
%struct.anon = type { ptr, i32 }

; Function Attrs: mustprogress nounwind uwtable
define noundef i32 @_ZNK6icu_776number4impl15DecimalQuantity33fractionCountWithoutTrailingZerosEv(ptr noundef nonnull align 8 dereferenceable(66) %0) #0 align 2 {
  %2 = alloca ptr, align 8
  %3 = alloca i32, align 4
  store ptr %0, ptr %2, align 8, !tbaa !25
  %4 = load ptr, ptr %2, align 8
  call void @llvm.lifetime.start.p0(i64 4, ptr %3) #14
  %5 = getelementptr inbounds nuw %"class.icu_77::number::impl::DecimalQuantity", ptr %4, i32 0, i32 3
  %6 = load i32, ptr %5, align 4, !tbaa !43
  %7 = sub nsw i32 0, %6
  %8 = getelementptr inbounds nuw %"class.icu_77::number::impl::DecimalQuantity", ptr %4, i32 0, i32 12
  %9 = load i32, ptr %8, align 4, !tbaa !36
  %10 = sub nsw i32 %7, %9
  store i32 %10, ptr %3, align 4, !tbaa !14
  %11 = load i32, ptr %3, align 4, !tbaa !14
  %12 = icmp sgt i32 %11, 0
  br i1 %12, label %13, label %15

13:                                               ; preds = %1
  %14 = load i32, ptr %3, align 4, !tbaa !14
  br label %16

15:                                               ; preds = %1
  br label %16

16:                                               ; preds = %15, %13
  %17 = phi i32 [ %14, %13 ], [ 0, %15 ]
  call void @llvm.lifetime.end.p0(i64 4, ptr %3) #14
  ret i32 %17
}