; Function Attrs: mustprogress nofree norecurse nosync nounwind willreturn memory(argmem: read) uwtable
define noundef range(i32 0, -2147483648) i32 @_ZNK6icu_776number4impl15DecimalQuantity33fractionCountWithoutTrailingZerosEv(ptr noundef nonnull readonly align 8 captures(none) dereferenceable(66) %0) local_unnamed_addr #16 align 2 {
  %2 = getelementptr inbounds nuw i8, ptr %0, i64 12
  %3 = load i32, ptr %2, align 4, !tbaa !27
  %4 = getelementptr inbounds nuw i8, ptr %0, i64 44
  %5 = load i32, ptr %4, align 4, !tbaa !32
  %6 = add i32 %3, %5
  %7 = sub i32 0, %6
  %8 = tail call i32 @llvm.smax.i32(i32 %7, i32 0)
  ret i32 %8
}